; Function Attrs: mustprogress nofree norecurse nosync nounwind willreturn memory(read, inaccessiblemem: none) uwtable
define dso_local { <2 x float>, <2 x float> } @_ZNK45btReducedDeformableFaceRigidContactConstraint5getDvEPKN10btSoftBody4NodeE(ptr nocapture noundef nonnull readonly align 8 dereferenceable(449) %this, ptr noundef readnone %node) unnamed_addr #10 align 2 {
entry:
  %m_total_normal_dv = getelementptr inbounds i8, ptr %this, i64 40
  %m_total_tangent_dv = getelementptr inbounds i8, ptr %this, i64 56
  %0 = load float, ptr %m_total_normal_dv, align 8
  %1 = load float, ptr %m_total_tangent_dv, align 8
  %arrayidx5.i = getelementptr inbounds i8, ptr %this, i64 44
  %arrayidx7.i = getelementptr inbounds i8, ptr %this, i64 60
  %2 = load <2 x float>, ptr %arrayidx5.i, align 4
  %3 = load <2 x float>, ptr %arrayidx7.i, align 4
  %m_contact.i = getelementptr inbounds i8, ptr %this, i64 88
  %4 = load ptr, ptr %m_contact.i, align 8
  %m_face = getelementptr inbounds i8, ptr %this, i64 440
  %5 = load ptr, ptr %m_face, align 8
  %m_n = getelementptr inbounds i8, ptr %5, i64 16
  %6 = load ptr, ptr %m_n, align 8
  %cmp = icmp eq ptr %6, %node
  br i1 %cmp, label %return, label %if.end

if.end:                                           ; preds = %entry
  %arrayidx9 = getelementptr inbounds i8, ptr %5, i64 24
  %7 = load ptr, ptr %arrayidx9, align 8
  %cmp10 = icmp eq ptr %7, %node
  %. = select i1 %cmp10, i64 892, i64 896
  br label %return

return:                                           ; preds = %if.end, %entry
  %.sink = phi i64 [ 888, %entry ], [ %., %if.end ]
  %8 = fadd <2 x float> %2, %3
  %add.i = fadd float %0, %1
  %arrayidx20 = getelementptr inbounds i8, ptr %4, i64 %.sink
  %9 = load float, ptr %arrayidx20, align 4
  %mul.i21 = fmul float %add.i, %9
  %10 = insertelement <2 x float> poison, float %9, i64 0
  %11 = shufflevector <2 x float> %10, <2 x float> poison, <2 x i32> zeroinitializer
  %12 = fmul <2 x float> %8, %11
  %retval.sroa.0.0.vec.insert.i26 = insertelement <2 x float> poison, float %mul.i21, i64 0
  %13 = shufflevector <2 x float> %retval.sroa.0.0.vec.insert.i26, <2 x float> %12, <2 x i32> <i32 0, i32 2>
  %14 = shufflevector <2 x float> <float poison, float 0.000000e+00>, <2 x float> %12, <2 x i32> <i32 3, i32 1>
  %.fca.0.insert.i9.pn = insertvalue { <2 x float>, <2 x float> } undef, <2 x float> %13, 0
  %call5.pn = insertvalue { <2 x float>, <2 x float> } %.fca.0.insert.i9.pn, <2 x float> %14, 1
  ret { <2 x float>, <2 x float> } %call5.pn
}